target datalayout = "e-m:e-p270:32:32-p271:32:32-p272:64:64-i64:64-i128:128-f80:128-n8:16:32:64-S128"
target triple = "x86_64-unknown-linux-gnu"

%"class.sat::literal" = type { i32 }
%class.symbol = type { ptr }
%"class.euf::th_solver" = type { %"class.sat::extension", %"class.euf::th_model_builder", %"class.euf::th_decompile", %"class.euf::th_internalizer", ptr }
%"class.sat::extension" = type { ptr, i8, i32, %class.symbol, ptr }
%"class.euf::th_model_builder" = type { ptr }
%"class.euf::th_decompile" = type { ptr }
%"class.euf::th_internalizer" = type { ptr, %class.ptr_vector, %class.svector }
%class.svector = type { %class.vector.0 }
%class.vector.0 = type { ptr }
%class.ptr_vector = type { %class.vector }
%class.vector = type { ptr }
%class.svector.1 = type { %class.vector.2 }
%class.vector.2 = type { ptr }
%class.ref = type { ptr }
%"struct.sat::no_drat_params" = type { %class.params_ref }
%class.params_ref = type { ptr }
%class.arith_util = type { ptr, ptr }
%class.ptr_vector.48 = type { %class.vector.49 }
%class.vector.49 = type { ptr }
%class.region = type { ptr, ptr, ptr, ptr, ptr }
%class.svector.82 = type { %class.vector.83 }
%class.vector.83 = type { ptr }
%class.obj_hashtable.84 = type { %class.core_hashtable.base.88, [4 x i8] }
%class.core_hashtable.base.88 = type <{ ptr, i32, i32, i32 }>
%class.svector.90 = type { %class.vector.91 }
%class.vector.91 = type { ptr }
%class.vector.129 = type { ptr }
%class.svector.130 = type { %class.vector.131 }
%class.vector.131 = type { ptr }
%class.ptr_vector.132 = type { %class.vector.133 }
%class.vector.133 = type { ptr }
%class.svector.134 = type { %class.vector.135 }
%class.vector.135 = type { ptr }
%class.svector.141 = type { %class.vector.142 }
%class.vector.142 = type { ptr }
%class.ref_vector = type { %class.ref_vector_core }
%class.ref_vector_core = type { %class.ref_manager_wrapper, %class.ptr_vector.48 }
%class.ref_manager_wrapper = type { ptr }
%"class.euf::solver" = type { %"class.sat::extension", %"class.euf::th_internalizer", %"class.euf::th_decompile", %"struct.sat::clause_eh", %"class.std::function", %"class.std::function.148", ptr, ptr, %"class.euf::relevancy", %struct.smt_params, %"struct.euf::solver::local_search_config", %"class.euf::egraph", %class.trail_stack, %"struct.euf::solver::stats", %class.th_rewriter, %class.ref_vector.173, ptr, ptr, ptr, %class.scoped_ptr.200, ptr, ptr, ptr, i32, %"class.std::__cxx11::basic_string", %class.ptr_vector.48, %class.ptr_vector.48, %class.ptr_vector.132, %class.svector.134, %class.svector.130, %class.svector.141, i32, %class.svector.1, %class.svector.201, %class.scoped_ptr_vector.203, %class.ptr_vector.204, ptr, ptr, i8, %class.ast_pp_util, i8, [7 x i8], %"class.euf::smt_proof_checker", %class.svector.141, %class.svector.90, %class.svector.90, %class.svector.90, i32, i32, i32, i32, i32, i32, i32, i32, %class.symbol, %class.symbol, %class.ref_vector, %class.ref_vector, %class.vector.315, %class.ref_vector, %class.obj_map.316, %class.ref, %class.scoped_ptr.321 }
%"struct.sat::clause_eh" = type { ptr }
%"class.std::function" = type { %"class.std::_Function_base", ptr }
%"class.std::_Function_base" = type { %"union.std::_Any_data", ptr }
%"union.std::_Any_data" = type { %"union.std::_Nocopy_types" }
%"union.std::_Nocopy_types" = type { { i64, i64 } }
%"class.std::function.148" = type { %"class.std::_Function_base", ptr }
%"class.euf::relevancy" = type { ptr, i8, %class.svector.150, %class.svector.1, i32, %class.svector.152, %"class.sat::clause_allocator", %class.ptr_vector.158, %class.svector.152, %class.vector.129, i32, %class.svector.160, %class.ptr_vector, %class.ptr_vector }
%class.svector.150 = type { %class.vector.151 }
%class.vector.151 = type { ptr }
%"class.sat::clause_allocator" = type { %class.sat_allocator, %class.id_gen }
%class.sat_allocator = type { ptr, i64, %class.ptr_vector.154, ptr, [65 x %class.ptr_vector.156] }
%class.ptr_vector.154 = type { %class.vector.155 }
%class.vector.155 = type { ptr }
%class.ptr_vector.156 = type { %class.vector.157 }
%class.vector.157 = type { ptr }
%class.id_gen = type { i32, %class.svector.1 }
%class.ptr_vector.158 = type { %class.vector.159 }
%class.vector.159 = type { ptr }
%class.svector.152 = type { %class.vector.153 }
%class.vector.153 = type { ptr }
%class.svector.160 = type { %class.vector.161 }
%class.vector.161 = type { ptr }
%struct.smt_params = type { %struct.preprocessor_params.base, %struct.dyn_ack_params, %struct.qi_params, %struct.theory_arith_params.base, i8, %struct.theory_array_params.base, %struct.theory_bv_params, %struct.theory_str_params.base, %struct.theory_seq_params, %struct.theory_pb_params.base, %struct.theory_datatype_params, i8, i8, i8, i8, i8, i8, i32, i8, i32, double, double, i32, i32, i32, i32, i32, i8, i32, i32, i32, i32, i32, i32, i8, i32, i8, i8, i8, i8, i8, %class.symbol, i32, i32, i8, i8, i8, i8, i32, i8, i32, i32, double, i8, double, double, i32, i8, i32, i32, double, i32, i32, i32, i32, i32, double, i8, i8, i8, %class.symbol, i8, i8, i8, i8, i8, i8, i32, i8, i8, i8, i8, i8, i8, i8, i8, i8, double, i8, %class.symbol }
%struct.preprocessor_params.base = type <{ %struct.pattern_inference_params.base, %struct.bit_blaster_params, i32, i32, i8, i8, i8, i8, i8, i8, i8, i8, i8, i8, i8, i8, i8, i8, i8, i8, i8, i8, i8 }>
%struct.pattern_inference_params.base = type <{ i8, [3 x i8], i32, i8, i8, [2 x i8], i32, i8, [3 x i8], i32, i32, i8, [3 x i8], i32, i8, i8 }>
%struct.bit_blaster_params = type { i8, i8 }
%struct.dyn_ack_params = type { i32, i8, double, i32, i32, double }
%struct.qi_params = type { %"class.std::__cxx11::basic_string", %"class.std::__cxx11::basic_string", double, double, i32, i32, i8, i32, i32, i8, i8, i32, i8, i8, i8, i8, i32, i32, i32, i8, i32, ptr }
%struct.theory_arith_params.base = type <{ i8, i8, [2 x i8], i32, i8, [3 x i8], i32, i8, [3 x i8], i32, i8, i8, [2 x i8], i32, i32, i8, i8, [2 x i8], i32, i32, i8, [3 x i8], i32, i32, i8, [3 x i8], double, double, i8, [3 x i8], i32, i8, i8, i8, i8, i8, [3 x i8], i32, i32, i8, [3 x i8], i32, i8, i8, i8, i8, i8, i8, [2 x i8], i32, i8, i8, [2 x i8], i32, i8, [3 x i8], i32, i8, i8, i8 }>
%struct.theory_array_params.base = type <{ i8, i8, [2 x i8], i32, i8, i8, [2 x i8], i32, i8, i8, i8, i8, i32, i8 }>
%struct.theory_bv_params = type { i32, i8, i8, i8, i8, i32, i8, i8, i8, i8, i32 }
%struct.theory_str_params.base = type <{ i8, i8, i8, i8, i8, i8, i8, i8, double, i32, i32, i32, i32, i32, i8, i8 }>
%struct.theory_seq_params = type { i8, i8, i32, i32 }
%struct.theory_pb_params.base = type <{ i32, i8 }>
%struct.theory_datatype_params = type { i32 }
%"struct.euf::solver::local_search_config" = type { double, i32, i32, i32, double }
%"class.euf::egraph" = type { ptr, %class.svector.162, %"class.euf::etable", %class.region, %class.scoped_ptr_vector.168, %class.svector.171, %class.svector.1, %class.ptr_vector, ptr, ptr, i32, %class.tmp_app, %class.ptr_vector, %class.ref_vector, %class.ref_vector.173, %class.vector.178, %class.ptr_vector, i32, i8, ptr, ptr, %"class.euf::justification", i32, %class.svector.181, %class.svector.152, %class.ptr_vector, %"struct.euf::egraph::stats", i8, i8, i64, %"class.std::vector", %"class.std::function.186", %"class.std::function.188", %"class.std::function.190", %"class.std::function.192", %"class.std::function.195" }
%class.svector.162 = type { %class.vector.163 }
%class.vector.163 = type { ptr }
%"class.euf::etable" = type { ptr, i8, %class.ptr_vector.156, %class.map.164 }
%class.map.164 = type { %class.table2map.165 }
%class.table2map.165 = type { %class.core_hashtable.166 }
%class.core_hashtable.166 = type <{ ptr, i32, i32, i32, [4 x i8] }>
%class.scoped_ptr_vector.168 = type { %class.ptr_vector.169 }
%class.ptr_vector.169 = type { %class.vector.170 }
%class.vector.170 = type { ptr }
%class.svector.171 = type { %class.vector.172 }
%class.vector.172 = type { ptr }
%class.tmp_app = type { i32, ptr }
%class.vector.178 = type { ptr }
%"class.euf::justification" = type { i32, %union.anon.179, %union.anon.180 }
%union.anon.179 = type { ptr }
%union.anon.180 = type { ptr }
%class.svector.181 = type { %class.vector.182 }
%class.vector.182 = type { ptr }
%"struct.euf::egraph::stats" = type { i32, i32, i32, i32, i32, i32 }
%"class.std::vector" = type { %"struct.std::_Vector_base" }
%"struct.std::_Vector_base" = type { %"struct.std::_Vector_base<std::function<void (euf::enode *, euf::enode *)>, std::allocator<std::function<void (euf::enode *, euf::enode *)>>>::_Vector_impl" }
%"struct.std::_Vector_base<std::function<void (euf::enode *, euf::enode *)>, std::allocator<std::function<void (euf::enode *, euf::enode *)>>>::_Vector_impl" = type { %"struct.std::_Vector_base<std::function<void (euf::enode *, euf::enode *)>, std::allocator<std::function<void (euf::enode *, euf::enode *)>>>::_Vector_impl_data" }
%"struct.std::_Vector_base<std::function<void (euf::enode *, euf::enode *)>, std::allocator<std::function<void (euf::enode *, euf::enode *)>>>::_Vector_impl_data" = type { ptr, ptr, ptr }
%"class.std::function.186" = type { %"class.std::_Function_base", ptr }
%"class.std::function.188" = type { %"class.std::_Function_base", ptr }
%"class.std::function.190" = type { %"class.std::_Function_base", ptr }
%"class.std::function.192" = type { %"class.std::_Function_base", ptr }
%"class.std::function.195" = type { %"class.std::_Function_base", ptr }
%class.trail_stack = type { %class.ptr_vector.198, %class.svector.1, %class.region }
%class.ptr_vector.198 = type { %class.vector.199 }
%class.vector.199 = type { ptr }
%"struct.euf::solver::stats" = type { i32, i32 }
%class.th_rewriter = type { ptr, %class.params_ref }
%class.ref_vector.173 = type { %class.ref_vector_core.174 }
%class.ref_vector_core.174 = type { %class.ref_manager_wrapper.175, %class.ptr_vector.176 }
%class.ref_manager_wrapper.175 = type { ptr }
%class.ptr_vector.176 = type { %class.vector.177 }
%class.vector.177 = type { ptr }
%class.scoped_ptr.200 = type { ptr }
%"class.std::__cxx11::basic_string" = type { %"struct.std::__cxx11::basic_string<char>::_Alloc_hider", i64, %union.anon }
%"struct.std::__cxx11::basic_string<char>::_Alloc_hider" = type { ptr }
%union.anon = type { i64, [8 x i8] }
%class.svector.201 = type { %class.vector.202 }
%class.vector.202 = type { ptr }
%class.scoped_ptr_vector.203 = type { %class.ptr_vector.204 }
%class.ptr_vector.204 = type { %class.vector.205 }
%class.vector.205 = type { ptr }
%class.ast_pp_util = type { ptr, %class.obj_hashtable.84, %class.smt2_pp_environment_dbg, %class.stacked_value, %class.stacked_value, %class.stacked_value, %class.obj_mark, %class.ref_vector, %class.svector.1, %class.decl_collector }
%class.smt2_pp_environment_dbg = type { %class.smt2_pp_environment, ptr, %class.arith_util, %class.bv_util, %class.array_util, %class.fpa_util, %class.seq_util, %"class.datatype::util", %"class.datalog::dl_decl_util" }
%class.smt2_pp_environment = type { ptr, %class.smt_renaming }
%class.smt_renaming = type { %class.map.206, %class.map.210 }
%class.map.206 = type { %class.table2map.207 }
%class.table2map.207 = type { %class.core_hashtable.208 }
%class.core_hashtable.208 = type <{ ptr, i32, i32, i32, [4 x i8] }>
%class.map.210 = type { %class.table2map.211 }
%class.table2map.211 = type { %class.core_hashtable.212 }
%class.core_hashtable.212 = type <{ ptr, i32, i32, i32, [4 x i8] }>
%class.bv_util = type { %class.bv_recognizers, ptr, ptr }
%class.bv_recognizers = type { i32 }
%class.array_util = type { %class.array_recognizers, ptr }
%class.array_recognizers = type { i32 }
%class.fpa_util = type { ptr, ptr, i32, %class.arith_util, %class.bv_util }
%class.seq_util = type { ptr, ptr, ptr, i32, [4 x i8], %"class.seq_util::str", %"class.seq_util::rex" }
%"class.seq_util::str" = type <{ ptr, ptr, i32, [4 x i8] }>
%"class.seq_util::rex" = type { ptr, ptr, i32, %class.vector.214, %class.ref_vector, %"struct.seq_util::rex::info", %"struct.seq_util::rex::info" }
%class.vector.214 = type { ptr }
%"struct.seq_util::rex::info" = type { i32, i8, i32, i32 }
%"class.datatype::util" = type { ptr, i32, ptr, %class.obj_map.215, %class.obj_map.220, %class.obj_map.225, %class.obj_map.230, %class.obj_map.230, %class.obj_map.230, %class.obj_map.235, %class.obj_map.235, %class.obj_map.235, %class.ref_vector.240, %class.ref_vector_core.245, %class.ptr_vector.248, i32, %class.ptr_vector.250 }
%class.obj_map.215 = type { %class.core_hashtable.216 }
%class.core_hashtable.216 = type <{ ptr, i32, i32, i32, [4 x i8] }>
%class.obj_map.220 = type { %class.core_hashtable.221 }
%class.core_hashtable.221 = type <{ ptr, i32, i32, i32, [4 x i8] }>
%class.obj_map.225 = type { %class.core_hashtable.226 }
%class.core_hashtable.226 = type <{ ptr, i32, i32, i32, [4 x i8] }>
%class.obj_map.230 = type { %class.core_hashtable.231 }
%class.core_hashtable.231 = type <{ ptr, i32, i32, i32, [4 x i8] }>
%class.obj_map.235 = type { %class.core_hashtable.236 }
%class.core_hashtable.236 = type <{ ptr, i32, i32, i32, [4 x i8] }>
%class.ref_vector.240 = type { %class.ref_vector_core.241 }
%class.ref_vector_core.241 = type { %class.ref_manager_wrapper.242, %class.ptr_vector.243 }
%class.ref_manager_wrapper.242 = type { ptr }
%class.ptr_vector.243 = type { %class.vector.244 }
%class.vector.244 = type { ptr }
%class.ref_vector_core.245 = type { %class.ptr_vector.246 }
%class.ptr_vector.246 = type { %class.vector.247 }
%class.vector.247 = type { ptr }
%class.ptr_vector.248 = type { %class.vector.249 }
%class.vector.249 = type { ptr }
%class.ptr_vector.250 = type { %class.vector.251 }
%class.vector.251 = type { ptr }
%"class.datalog::dl_decl_util" = type <{ ptr, %class.scoped_ptr.252, %class.scoped_ptr.253, i32, [4 x i8] }>
%class.scoped_ptr.252 = type { ptr }
%class.scoped_ptr.253 = type { ptr }
%class.stacked_value = type { i32, %class.vector.254 }
%class.vector.254 = type { ptr }
%class.obj_mark = type { %struct.default_t2uint, %class.bit_vector }
%struct.default_t2uint = type { i8 }
%class.bit_vector = type { i32, i32, ptr }
%class.decl_collector = type { ptr, %class.lim_svector, %class.lim_svector.256, %class.lim_svector.256, %class.ast_mark, %class.ref_vector.240, %class.svector.1, i32, i32, %"class.datatype::util", %class.array_util, i32, %class.ptr_vector.243 }
%class.lim_svector = type { %class.svector.255, %class.svector.1 }
%class.svector.255 = type { %class.vector.251 }
%class.lim_svector.256 = type { %class.svector.257, %class.svector.1 }
%class.svector.257 = type { %class.vector.177 }
%class.ast_mark = type { ptr, %class.obj_mark, %class.obj_mark.258 }
%class.obj_mark.258 = type { %"struct.ast_mark::decl2uint", %class.bit_vector }
%"struct.ast_mark::decl2uint" = type { i8 }
%"class.euf::smt_proof_checker" = type <{ ptr, %class.params_ref, %"class.euf::theory_checker", %class.scoped_ptr.266, %class.symbol, %"class.sat::solver", %"class.sat::drat", %class.svector.141, %class.svector.141, i8, [7 x i8], %class.map.311, %class.map.311, i32, [4 x i8] }>
%"class.euf::theory_checker" = type { ptr, %class.scoped_ptr_vector.259, %class.map.262 }
%class.scoped_ptr_vector.259 = type { %class.ptr_vector.260 }
%class.ptr_vector.260 = type { %class.vector.261 }
%class.vector.261 = type { ptr }
%class.map.262 = type { %class.table2map.263 }
%class.table2map.263 = type { %class.core_hashtable.264 }
%class.core_hashtable.264 = type <{ ptr, i32, i32, i32, [4 x i8] }>
%class.scoped_ptr.266 = type { ptr }
%"class.sat::solver" = type { %"class.sat::solver_core", i8, [7 x i8], %"struct.sat::config", %"struct.sat::stats", %class.scoped_ptr.267, %class.scoped_ptr.268, ptr, %"class.sat::drat", [2 x %"class.sat::clause_allocator"], i8, %class.random_gen, %"class.sat::cleaner", %class.svector.275, %"class.sat::model_converter", i8, %"class.sat::simplifier", %"class.sat::scc", %"class.sat::asymm_branch", %"class.sat::probing", i8, [7 x i8], %"class.sat::mus", %"class.sat::binspr", i8, i8, [6 x i8], %"class.sat::justification", %"class.sat::literal", %class.ptr_vector.158, %class.ptr_vector.158, i32, %class.svector.1, %class.svector.1, %class.svector.1, %class.svector.1, %class.vector.296, %class.svector.275, %class.svector.297, %class.svector.152, %class.svector.152, %class.svector.152, %class.svector.152, %class.svector.152, %class.svector.1, %class.svector.1, i32, %class.svector.141, %class.svector.1, i32, %class.svector.299, %class.svector.299, %class.svector.299, %class.svector.299, %class.svector.299, i32, double, %class.svector.152, %class.svector.152, %class.svector.152, %class.svector.284, i32, i32, i32, i32, i32, i32, %"struct.sat::backoff", i32, i32, %"struct.sat::backoff", %"struct.sat::backoff", %class.var_queue, i32, i32, i32, %class.ema, %class.ema, %class.ema, %class.ema, %class.ema, %class.svector.141, %class.svector.286, %"class.std::__cxx11::basic_string", i8, %class.visit_helper, %class.svector.301, %class.scoped_limit_trail, %class.stopwatch, %class.params_ref, %"struct.sat::no_drat_params", %class.scoped_ptr.294, %class.svector.141, %"class.sat::literal_set", %"class.sat::literal_set", %class.svector.141, i32, i32, i32, i32, i8, ptr, ptr, %class.statistics, i32, i32, i32, i32, i8, i32, i32, i32, i32, i32, i32, i32, double, i32, double, i8, i8, %class.svector.141, i8, %class.svector.299, i32, i32, i32, %class.svector.141, %class.svector.141, %class.svector.284, %class.svector.1, %class.approx_set_tpl, %class.svector.141, %class.svector.141, %class.vector.129, %class.svector.141, %class.svector.292, %class.u_map, %class.svector.141 }
%"class.sat::solver_core" = type { ptr, ptr }
%"struct.sat::config" = type <{ i64, i32, i32, i32, i8, [3 x i8], i32, i32, double, i32, i8, [3 x i8], i32, i8, [3 x i8], i32, [4 x i8], double, double, i32, i32, double, double, i32, [4 x i8], %class.symbol, double, i32, i32, i8, [3 x i8], i32, i32, i8, [3 x i8], i32, i8, [3 x i8], i32, i8, [3 x i8], i32, i8, i8, i8, i8, i32, i8, i8, i8, i8, i8, i8, i8, i8, i32, i8, i8, i8, i8, i32, double, i32, [4 x i8], double, double, double, double, i32, i8, i8, [2 x i8], double, i8, i8, [2 x i8], i32, double, i32, i32, i32, i32, i32, i32, i32, i32, i8, i8, i8, i8, i32, i32, i8, i8, i8, i8, i8, i8, i8, [5 x i8], %class.symbol, i8, i8, i8, i8, i8, i8, [2 x i8], i32, i32, i32, i8, [3 x i8], double, double, double, double, double, i8, [7 x i8] }>
%"struct.sat::stats" = type { i32, i32, i32, i32, i32, i32, i32, i32, i32, i32, i32, i32, i32, i32, i32, i32, i32, i32, i32, i32, i32 }
%class.scoped_ptr.267 = type { ptr }
%class.scoped_ptr.268 = type { ptr }
%class.random_gen = type { i32 }
%"class.sat::cleaner" = type { ptr, i32, i32, i32, i32 }
%"class.sat::model_converter" = type { %class.vector.277, i32, %class.svector.152, ptr, %class.svector.278 }
%class.vector.277 = type { ptr }
%class.svector.278 = type { %class.vector.279 }
%class.vector.279 = type { ptr }
%"class.sat::simplifier" = type { ptr, i32, %"class.sat::use_list", %"class.sat::ext_use_list", %"class.sat::clause_set", %class.svector.282, i32, %class.tracked_uint_set, i8, %"class.sat::tmp_clause", %class.svector.284, i32, i32, i8, i8, i8, i8, i32, i8, i8, i32, i8, i32, i8, i8, i32, i32, i32, i32, i32, i32, i32, i32, i32, i32, i8, i32, i8, i8, i32, i32, i32, i32, i32, i32, i32, i32, i32, i32, i32, i8, i32, %class.ptr_vector.158, %class.svector.141, %class.svector.286, %class.svector.286, %class.svector.141 }
%"class.sat::use_list" = type { %class.vector.280 }
%class.vector.280 = type { ptr }
%"class.sat::ext_use_list" = type { %class.vector.281 }
%class.vector.281 = type { ptr }
%"class.sat::clause_set" = type { %class.svector.1, %class.ptr_vector.158 }
%class.svector.282 = type { %class.vector.283 }
%class.vector.283 = type { ptr }
%class.tracked_uint_set = type { %class.svector.284, %class.svector.1 }
%"class.sat::tmp_clause" = type { ptr }
%"class.sat::scc" = type { ptr, i8, i8, i32, i32, %"class.sat::big" }
%"class.sat::big" = type { ptr, i32, %class.vector.288, %class.svector.152, %class.svector.82, %class.svector.82, %class.svector.141, %class.svector.141, i8, i8, %class.vector.288 }
%class.vector.288 = type { ptr }
%"class.sat::asymm_branch" = type { ptr, %class.params_ref, i64, %class.random_gen, i32, i32, i8, i32, i32, i8, i8, i64, i32, i32, i32, %class.svector.141, %class.svector.141, %class.svector.289, %class.svector.289, %class.svector.141, %class.svector.141 }
%class.svector.289 = type { %class.vector.290 }
%class.vector.290 = type { ptr }
%"class.sat::probing" = type { ptr, i32, %"class.sat::literal_set", %class.svector.141, i32, i8, i32, i8, i8, i64, i32, %class.vector.291, %class.svector.292, %"class.sat::big" }
%class.vector.291 = type { ptr }
%"class.sat::mus" = type <{ ptr, %class.svector.141, %class.svector.141, i8, [7 x i8], %class.svector.275, i32, [4 x i8] }>
%"class.sat::binspr" = type <{ ptr, %class.scoped_ptr.294, i32, i32, %class.vector.295, i32, i32, %class.svector.152, %class.svector.152, %class.svector.141, %class.svector.141, i32, i32, i32, i32, i32, [4 x i32], [5 x i32], [5 x i32], [4 x i8] }>
%class.vector.295 = type { ptr }
%"class.sat::justification" = type <{ i32, [4 x i8], i64, i32, [4 x i8] }>
%class.vector.296 = type { ptr }
%class.svector.275 = type { %class.vector.276 }
%class.vector.276 = type { ptr }
%class.svector.297 = type { %class.vector.298 }
%class.vector.298 = type { ptr }
%"struct.sat::backoff" = type { i32, i32, i32, i32, i32 }
%class.var_queue = type { %class.heap }
%class.heap = type { %"struct.var_queue<svector<unsigned int>>::lt", %class.svector.82, %class.svector.82 }
%"struct.var_queue<svector<unsigned int>>::lt" = type { ptr }
%class.ema = type { double, double, double, i32, i32 }
%class.svector.286 = type { %class.vector.287 }
%class.vector.287 = type { ptr }
%class.visit_helper = type { %class.svector.1, i32, i32 }
%class.svector.301 = type { %class.vector.302 }
%class.vector.302 = type { ptr }
%class.scoped_limit_trail = type { %class.svector.1, i32, i32 }
%class.stopwatch = type <{ %"class.std::chrono::time_point", %"class.std::chrono::duration", i8, [7 x i8] }>
%"class.std::chrono::time_point" = type { %"class.std::chrono::duration" }
%"class.std::chrono::duration" = type { i64 }
%class.scoped_ptr.294 = type { ptr }
%"class.sat::literal_set" = type { %class.tracked_uint_set }
%class.statistics = type { %class.svector.303, %class.svector.305 }
%class.svector.303 = type { %class.vector.304 }
%class.vector.304 = type { ptr }
%class.svector.305 = type { %class.vector.306 }
%class.vector.306 = type { ptr }
%class.svector.299 = type { %class.vector.300 }
%class.vector.300 = type { ptr }
%class.svector.284 = type { %class.vector.285 }
%class.vector.285 = type { ptr }
%class.approx_set_tpl = type { i32 }
%class.svector.292 = type { %class.vector.293 }
%class.vector.293 = type { ptr }
%class.u_map = type { %class.map.307 }
%class.map.307 = type { %class.table2map.308 }
%class.table2map.308 = type { %class.core_hashtable.309 }
%class.core_hashtable.309 = type <{ ptr, i32, i32, i32, [4 x i8] }>
%"class.sat::drat" = type { ptr, %class.svector.269, ptr, %"class.sat::clause_allocator", ptr, ptr, %class.svector.271, %class.svector.273, %class.vector.129, %class.svector.275, i8, i8, i8, i8, i8, %"struct.sat::drat::stats" }
%class.svector.269 = type { %class.vector.270 }
%class.vector.270 = type { ptr }
%class.svector.271 = type { %class.vector.272 }
%class.vector.272 = type { ptr }
%class.svector.273 = type { %class.vector.274 }
%class.vector.274 = type { ptr }
%"struct.sat::drat::stats" = type { i32, i32, i32, i32 }
%class.map.311 = type { %class.table2map.312 }
%class.table2map.312 = type { %class.core_hashtable.313 }
%class.core_hashtable.313 = type <{ ptr, i32, i32, i32, [4 x i8] }>
%class.vector.315 = type { ptr }
%class.obj_map.316 = type { %class.core_hashtable.317 }
%class.core_hashtable.317 = type <{ ptr, i32, i32, i32, [4 x i8] }>
%class.scoped_ptr.321 = type { ptr }
%"class.euf::th_euf_solver" = type <{ %"class.euf::th_solver", ptr, %class.ptr_vector, %class.svector.1, i32, [4 x i8] }>

; Function Attrs: mustprogress nounwind uwtable
define linkonce_odr hidden noundef i32 @_ZNK3sat9extension6get_idEv(ptr noundef nonnull align 8 dereferenceable(32) %this) #4 comdat align 2 {
entry:
  %this.addr = alloca ptr, align 8
  store ptr %this, ptr %this.addr, align 8
  %this1 = load ptr, ptr %this.addr, align 8
  %m_id = getelementptr inbounds %"class.sat::extension", ptr %this1, i32 0, i32 2
  %0 = load i32, ptr %m_id, align 4
  ret i32 %0
}

; Function Attrs: mustprogress uwtable
define linkonce_odr hidden void @_ZN3euf6solver13attach_th_varEPNS_5enodeEPNS_9th_solverEi(ptr noundef nonnull align 8 dereferenceable(9136) %this, ptr noundef %n, ptr noundef %th, i32 noundef %v) #5 comdat align 2 {
entry:
  %this.addr = alloca ptr, align 8
  %n.addr = alloca ptr, align 8
  %th.addr = alloca ptr, align 8
  %v.addr = alloca i32, align 4
  store ptr %this, ptr %this.addr, align 8
  store ptr %n, ptr %n.addr, align 8
  store ptr %th, ptr %th.addr, align 8
  store i32 %v, ptr %v.addr, align 4
  %this1 = load ptr, ptr %this.addr, align 8
  %m_egraph = getelementptr inbounds %"class.euf::solver", ptr %this1, i32 0, i32 11
  %0 = load ptr, ptr %n.addr, align 8
  %1 = load i32, ptr %v.addr, align 4
  %2 = load ptr, ptr %th.addr, align 8
  %call = call noundef i32 @_ZNK3sat9extension6get_idEv(ptr noundef nonnull align 8 dereferenceable(32) %2)
  call void @_ZN3euf6egraph10add_th_varEPNS_5enodeEii(ptr noundef nonnull align 8 dereferenceable(536) %m_egraph, ptr noundef %0, i32 noundef %1, i32 noundef %call)
  ret void
}

; Function Attrs: mustprogress uwtable
define hidden noundef i32 @_ZN1q6solver6mk_varEPN3euf5enodeE(ptr noundef nonnull align 8 dereferenceable(3144) %this, ptr noundef %n) unnamed_addr #5 align 2 {
entry:
  %this.addr = alloca ptr, align 8
  %n.addr = alloca ptr, align 8
  %v = alloca i32, align 4
  store ptr %this, ptr %this.addr, align 8
  store ptr %n, ptr %n.addr, align 8
  %this1 = load ptr, ptr %this.addr, align 8
  %0 = load ptr, ptr %n.addr, align 8
  %call = call noundef i32 @_ZN3euf13th_euf_solver6mk_varEPNS_5enodeE(ptr noundef nonnull align 8 dereferenceable(108) %this1, ptr noundef %0)
  store i32 %call, ptr %v, align 4
  %ctx = getelementptr inbounds %"class.euf::th_euf_solver", ptr %this1, i32 0, i32 1
  %1 = load ptr, ptr %ctx, align 8
  %2 = load ptr, ptr %n.addr, align 8
  %3 = load i32, ptr %v, align 4
  call void @_ZN3euf6solver13attach_th_varEPNS_5enodeEPNS_9th_solverEi(ptr noundef nonnull align 8 dereferenceable(9136) %1, ptr noundef %2, ptr noundef %this1, i32 noundef %3)
  %4 = load i32, ptr %v, align 4
  ret i32 %4
}