; Function Attrs: mustprogress uwtable
define hidden noundef i32 @_ZN1q6solver6mk_varEPN3euf5enodeE(ptr noundef nonnull align 8 dereferenceable(3144) %this, ptr noundef %n) unnamed_addr #3 align 2 {
entry:
  %call = tail call noundef i32 @_ZN3euf13th_euf_solver6mk_varEPNS_5enodeE(ptr noundef nonnull align 8 dereferenceable(108) %this, ptr noundef %n)
  %ctx = getelementptr inbounds i8, ptr %this, i64 80
  %0 = load ptr, ptr %ctx, align 8
  %m_egraph.i = getelementptr inbounds i8, ptr %0, i64 1656
  %m_id.i.i = getelementptr inbounds i8, ptr %this, i64 12
  %1 = load i32, ptr %m_id.i.i, align 4
  tail call void @_ZN3euf6egraph10add_th_varEPNS_5enodeEii(ptr noundef nonnull align 8 dereferenceable(536) %m_egraph.i, ptr noundef %n, i32 noundef %call, i32 noundef %1)
  ret i32 %call
}